(dp1
S'output'
p2
S"<type 'exceptions.SyntaxError'> Field: unknown field type: int for duration_sec"
p3
sS'layer'
p4
S'/home/utahgroup/web2py/applications/welcome/models/db.py'
p5
sS'code'
p6
S'<code object <module> at 0x7f0c3931abb0, file "/home/utahgroup/web2py/applications/welcome/models/db.py", line 7>'
p7
sS'snapshot'
p8
(dp9
S'exception'
p10
(dp11
S'__getslice__'
p12
S"<method-wrapper '__getslice__' of exceptions.SyntaxError object>"
p13
sS'text'
p14
S'None'
p15
sS'__str__'
p16
S"<method-wrapper '__str__' of exceptions.SyntaxError object>"
p17
sS'__reduce__'
p18
S'<built-in method __reduce__ of exceptions.SyntaxError object>'
p19
sS'__dict__'
p20
S'{}'
p21
sS'__sizeof__'
p22
S'<built-in method __sizeof__ of exceptions.SyntaxError object>'
p23
sS'message'
p24
S"'Field: unknown field type: int for duration_sec'"
p25
sS'__init__'
p26
S"<method-wrapper '__init__' of exceptions.SyntaxError object>"
p27
sS'__setattr__'
p28
S"<method-wrapper '__setattr__' of exceptions.SyntaxError object>"
p29
sS'__reduce_ex__'
p30
S'<built-in method __reduce_ex__ of exceptions.SyntaxError object>'
p31
sS'__new__'
p32
S'<built-in method __new__ of type object>'
p33
sS'__format__'
p34
S'<built-in method __format__ of exceptions.SyntaxError object>'
p35
sS'__class__'
p36
S"<type 'exceptions.SyntaxError'>"
p37
sS'filename'
p38
S'None'
p39
sS'lineno'
p40
S'None'
p41
sS'msg'
p42
S"'Field: unknown field type: int for duration_sec'"
p43
sS'__doc__'
p44
S"'Invalid syntax.'"
p45
sS'__getitem__'
p46
S"<method-wrapper '__getitem__' of exceptions.SyntaxError object>"
p47
sS'__setstate__'
p48
S'<built-in method __setstate__ of exceptions.SyntaxError object>'
p49
sS'__getattribute__'
p50
S"<method-wrapper '__getattribute__' of exceptions.SyntaxError object>"
p51
sS'print_file_and_line'
p52
S'None'
p53
sS'args'
p54
S"('Field: unknown field type: int for duration_sec',)"
p55
sS'__subclasshook__'
p56
S'<built-in method __subclasshook__ of type object>'
p57
sS'offset'
p58
S'None'
p59
sS'__unicode__'
p60
S'<built-in method __unicode__ of exceptions.SyntaxError object>'
p61
sS'__delattr__'
p62
S"<method-wrapper '__delattr__' of exceptions.SyntaxError object>"
p63
sS'__repr__'
p64
S"<method-wrapper '__repr__' of exceptions.SyntaxError object>"
p65
sS'__hash__'
p66
S"<method-wrapper '__hash__' of exceptions.SyntaxError object>"
p67
ssS'evalue'
p68
S'Field: unknown field type: int for duration_sec'
p69
sS'request'
p70
cgluon.html
XML_unpickle
p71
(S'sKX\x00\x00<div><table><tr><td style="font-weight:bold;vertical-align:top;">ajax</td><td style="vertical-align:top;">:</td><td><div>True</div></td></tr><tr><td style="font-weight:bold;vertical-align:top;">application</td><td style="vertical-align:top;">:</td><td><div>welcome</div></td></tr><tr><td style="font-weight:bold;vertical-align:top;">args</td><td style="vertical-align:top;">:</td><td><div><table></table></div></td></tr><tr><td style="font-weight:bold;vertical-align:top;">cid</td><td style="vertical-align:top;">:</td><td><div>c660172283886</div></td></tr><tr><td style="font-weight:bold;vertical-align:top;">client</td><td style="vertical-align:top;">:</td><td><div>65.130.204.61</div></td></tr><tr><td style="font-weight:bold;vertical-align:top;">controller</td><td style="vertical-align:top;">:</td><td><div>appadmin</div></td></tr><tr><td style="font-weight:bold;vertical-align:top;">cookies</td><td style="vertical-align:top;">:</td><td><div><table><tr><td style="font-weight:bold;vertical-align:top;">session_id_admin</td><td style="vertical-align:top;">:</td><td><div>65.130.204.61-701f80ff-1f0e-4891-b7f0-a589b517cea2<table><tr><td style="font-weight:bold;vertical-align:top;">comment</td><td style="vertical-align:top;">:</td><td><div></div></td></tr><tr><td style="font-weight:bold;vertical-align:top;">domain</td><td style="vertical-align:top;">:</td><td><div></div></td></tr><tr><td style="font-weight:bold;vertical-align:top;">expires</td><td style="vertical-align:top;">:</td><td><div></div></td></tr><tr><td style="font-weight:bold;vertical-align:top;">httponly</td><td style="vertical-align:top;">:</td><td><div></div></td></tr><tr><td style="font-weight:bold;vertical-align:top;">max-age</td><td style="vertical-align:top;">:</td><td><div></div></td></tr><tr><td style="font-weight:bold;vertical-align:top;">path</td><td style="vertical-align:top;">:</td><td><div></div></td></tr><tr><td style="font-weight:bold;vertical-align:top;">secure</td><td style="vertical-align:top;">:</td><td><div></div></td></tr><tr><td style="font-weight:bold;vertical-align:top;">version</td><td style="vertical-align:top;">:</td><td><div></div></td></tr></table></div></td></tr><tr><td style="font-weight:bold;vertical-align:top;">session_id_welcome</td><td style="vertical-align:top;">:</td><td><div>65.130.204.61-4e881b63-d959-4082-b0b5-7a32b445a3a3<table><tr><td style="font-weight:bold;vertical-align:top;">comment</td><td style="vertical-align:top;">:</td><td><div></div></td></tr><tr><td style="font-weight:bold;vertical-align:top;">domain</td><td style="vertical-align:top;">:</td><td><div></div></td></tr><tr><td style="font-weight:bold;vertical-align:top;">expires</td><td style="vertical-align:top;">:</td><td><div></div></td></tr><tr><td style="font-weight:bold;vertical-align:top;">httponly</td><td style="vertical-align:top;">:</td><td><div></div></td></tr><tr><td style="font-weight:bold;vertical-align:top;">max-age</td><td style="vertical-align:top;">:</td><td><div></div></td></tr><tr><td style="font-weight:bold;vertical-align:top;">path</td><td style="vertical-align:top;">:</td><td><div></div></td></tr><tr><td style="font-weight:bold;vertical-align:top;">secure</td><td style="vertical-align:top;">:</td><td><div></div></td></tr><tr><td style="font-weight:bold;vertical-align:top;">version</td><td style="vertical-align:top;">:</td><td><div></div></td></tr></table></div></td></tr></table></div></td></tr><tr><td style="font-weight:bold;vertical-align:top;">env</td><td style="vertical-align:top;">:</td><td><div><table><tr><td style="font-weight:bold;vertical-align:top;">CONTENT_LENGTH</td><td style="vertical-align:top;">:</td><td><div></div></td></tr><tr><td style="font-weight:bold;vertical-align:top;">CONTENT_TYPE</td><td style="vertical-align:top;">:</td><td><div>application/x-www-form-urlencoded; charset=UTF-8</div></td></tr><tr><td style="font-weight:bold;vertical-align:top;">DOCUMENT_ROOT</td><td style="vertical-align:top;">:</td><td><div>/usr/local/openresty/nginx/html</div></td></tr><tr><td style="font-weight:bold;vertical-align:top;">HTTPS</td><td style="vertical-align:top;">:</td><td><div>on</div></td></tr><tr><td style="font-weight:bold;vertical-align:top;">HTTP_ACCEPT</td><td style="vertical-align:top;">:</td><td><div>*/*</div></td></tr><tr><td style="font-weight:bold;vertical-align:top;">HTTP_ACCEPT_ENCODING</td><td style="vertical-align:top;">:</td><td><div>gzip, deflate, br</div></td></tr><tr><td style="font-weight:bold;vertical-align:top;">HTTP_ACCEPT_LANGUAGE</td><td style="vertical-align:top;">:</td><td><div>en-US,en;q=0.9</div></td></tr><tr><td style="font-weight:bold;vertical-align:top;">HTTP_CONNECTION</td><td style="vertical-align:top;">:</td><td><div>close</div></td></tr><tr><td style="font-weight:bold;vertical-align:top;">HTTP_CONTENT_TYPE</td><td style="vertical-align:top;">:</td><td><div>application/x-www-form-urlencoded; charset=UTF-8</div></td></tr><tr><td style="font-weight:bold;vertical-align:top;">HTTP_COOKIE</td><td style="vertical-align:top;">:</td><td><div>_ga=GA1.2.1366638606.1551909433; _gid=GA1.2.637635298.1551909433; session_id_admin=65.130.204.61-701f80ff-1f0e-4891-b7f0-a589b517cea2; session_id_welcome=65.130.204.61-4e881b63-d959-4082-b0b5-7a32b445a3a3</div></td></tr><tr><td style="font-weight:bold;vertical-align:top;">HTTP_HOST</td><td style="vertical-align:top;">:</td><td><div>utahgroup.pythonanywhere.com</div></td></tr><tr><td style="font-weight:bold;vertical-align:top;">HTTP_REFERER</td><td style="vertical-align:top;">:</td><td><div>https://utahgroup.pythonanywhere.com/admin/default/edit/welcome/models/db.py?id=models__db__py</div></td></tr><tr><td style="font-weight:bold;vertical-align:top;">HTTP_USER_AGENT</td><td style="vertical-align:top;">:</td><td><div>Mozilla/5.0 (Windows NT 10.0; Win64; x64) AppleWebKit/537.36 (KHTML, like Gecko) Chrome/72.0.3626.119 Safari/537.36</div></td></tr><tr><td style="font-weight:bold;vertical-align:top;">HTTP_WEB2PY_COMPONENT_ELEMENT</td><td style="vertical-align:top;">:</td><td><div>c660172283886</div></td></tr><tr><td style="font-weight:bold;vertical-align:top;">HTTP_WEB2PY_COMPONENT_LOCATION</td><td style="vertical-align:top;">:</td><td><div>https://utahgroup.pythonanywhere.com/admin/default/edit/welcome/models/db.py?id=models__db__py</div></td></tr><tr><td style="font-weight:bold;vertical-align:top;">HTTP_X_FORWARDED_FOR</td><td style="vertical-align:top;">:</td><td><div>65.130.204.61</div></td></tr><tr><td style="font-weight:bold;vertical-align:top;">HTTP_X_REAL_IP</td><td style="vertical-align:top;">:</td><td><div>65.130.204.61</div></td></tr><tr><td style="font-weight:bold;vertical-align:top;">HTTP_X_REQUESTED_WITH</td><td style="vertical-align:top;">:</td><td><div>XMLHttpRequest</div></td></tr><tr><td style="font-weight:bold;vertical-align:top;">PATH_INFO</td><td style="vertical-align:top;">:</td><td><div>/welcome/appadmin/hooks</div></td></tr><tr><td style="font-weight:bold;vertical-align:top;">QUERY_STRING</td><td style="vertical-align:top;">:</td><td><div></div></td></tr><tr><td style="font-weight:bold;vertical-align:top;">REMOTE_ADDR</td><td style="vertical-align:top;">:</td><td><div>10.0.0.53</div></td></tr><tr><td style="font-weight:bold;vertical-align:top;">REMOTE_PORT</td><td style="vertical-align:top;">:</td><td><div>44438</div></td></tr><tr><td style="font-weight:bold;vertical-align:top;">REQUEST_METHOD</td><td style="vertical-align:top;">:</td><td><div>GET</div></td></tr><tr><td style="font-weight:bold;vertical-align:top;">REQUEST_URI</td><td style="vertical-align:top;">:</td><td><div>/welcome/appadmin/hooks</div></td></tr><tr><td style="font-weight:bold;vertical-align:top;">SCRIPT_NAME</td><td style="vertical-align:top;">:</td><td><div></div></td></tr><tr><td style="font-weight:bold;vertical-align:top;">SERVER_NAME</td><td style="vertical-align:top;">:</td><td><div>utahgroup.pythonanywhere.com</div></td></tr><tr><td style="font-weight:bold;vertical-align:top;">SERVER_PORT</td><td style="vertical-align:top;">:</td><td><div>443</div></td></tr><tr><td style="font-weight:bold;vertical-align:top;">SERVER_PROTOCOL</td><td style="vertical-align:top;">:</td><td><div>HTTP/1.1</div></td></tr><tr><td style="font-weight:bold;vertical-align:top;">app_folders</td><td style="vertical-align:top;">:</td><td><div>set([&#x27;/home/utahgroup/web2py/applications/welcome/&#x27;, &#x27;/home/utahgroup/web2py/applications/admin/&#x27;])</div></td></tr><tr><td style="font-weight:bold;vertical-align:top;">applications_parent</td><td style="vertical-align:top;">:</td><td><div>/home/utahgroup/web2py</div></td></tr><tr><td style="font-weight:bold;vertical-align:top;">content_length</td><td style="vertical-align:top;">:</td><td><div></div></td></tr><tr><td style="font-weight:bold;vertical-align:top;">content_type</td><td style="vertical-align:top;">:</td><td><div>application/x-www-form-urlencoded; charset=UTF-8</div></td></tr><tr><td style="font-weight:bold;vertical-align:top;">db_sessions</td><td style="vertical-align:top;">:</td><td><div>set([])</div></td></tr><tr><td style="font-weight:bold;vertical-align:top;">debugging</td><td style="vertical-align:top;">:</td><td><div>True</div></td></tr><tr><td style="font-weight:bold;vertical-align:top;">document_root</td><td style="vertical-align:top;">:</td><td><div>/usr/local/openresty/nginx/html</div></td></tr><tr><td style="font-weight:bold;vertical-align:top;">gluon_parent</td><td style="vertical-align:top;">:</td><td><div>/home/utahgroup/web2py</div></td></tr><tr><td style="font-weight:bold;vertical-align:top;">http_accept</td><td style="vertical-align:top;">:</td><td><div>*/*</div></td></tr><tr><td style="font-weight:bold;vertical-align:top;">http_accept_encoding</td><td style="vertical-align:top;">:</td><td><div>gzip, deflate, br</div></td></tr><tr><td style="font-weight:bold;vertical-align:top;">http_accept_language</td><td style="vertical-align:top;">:</td><td><div>en-US,en;q=0.9</div></td></tr><tr><td style="font-weight:bold;vertical-align:top;">http_connection</td><td style="vertical-align:top;">:</td><td><div>close</div></td></tr><tr><td style="font-weight:bold;vertical-align:top;">http_content_type</td><td style="vertical-align:top;">:</td><td><div>application/x-www-form-urlencoded; charset=UTF-8</div></td></tr><tr><td style="font-weight:bold;vertical-align:top;">http_cookie</td><td style="vertical-align:top;">:</td><td><div>_ga=GA1.2.1366638606.1551909433; _gid=GA1.2.637635298.1551909433; session_id_admin=65.130.204.61-701f80ff-1f0e-4891-b7f0-a589b517cea2; session_id_welcome=65.130.204.61-4e881b63-d959-4082-b0b5-7a32b445a3a3</div></td></tr><tr><td style="font-weight:bold;vertical-align:top;">http_host</td><td style="vertical-align:top;">:</td><td><div>utahgroup.pythonanywhere.com</div></td></tr><tr><td style="font-weight:bold;vertical-align:top;">http_referer</td><td style="vertical-align:top;">:</td><td><div>https://utahgroup.pythonanywhere.com/admin/default/edit/welcome/models/db.py?id=models__db__py</div></td></tr><tr><td style="font-weight:bold;vertical-align:top;">http_user_agent</td><td style="vertical-align:top;">:</td><td><div>Mozilla/5.0 (Windows NT 10.0; Win64; x64) AppleWebKit/537.36 (KHTML, like Gecko) Chrome/72.0.3626.119 Safari/537.36</div></td></tr><tr><td style="font-weight:bold;vertical-align:top;">http_web2py_component_element</td><td style="vertical-align:top;">:</td><td><div>c660172283886</div></td></tr><tr><td style="font-weight:bold;vertical-align:top;">http_web2py_component_location</td><td style="vertical-align:top;">:</td><td><div>https://utahgroup.pythonanywhere.com/admin/default/edit/welcome/models/db.py?id=models__db__py</div></td></tr><tr><td style="font-weight:bold;vertical-align:top;">http_x_forwarded_for</td><td style="vertical-align:top;">:</td><td><div>65.130.204.61</div></td></tr><tr><td style="font-weight:bold;vertical-align:top;">http_x_real_ip</td><td style="vertical-align:top;">:</td><td><div>65.130.204.61</div></td></tr><tr><td style="font-weight:bold;vertical-align:top;">http_x_requested_with</td><td style="vertical-align:top;">:</td><td><div>XMLHttpRequest</div></td></tr><tr><td style="font-weight:bold;vertical-align:top;">https</td><td style="vertical-align:top;">:</td><td><div>on</div></td></tr><tr><td style="font-weight:bold;vertical-align:top;">is_jython</td><td style="vertical-align:top;">:</td><td><div>False</div></td></tr><tr><td style="font-weight:bold;vertical-align:top;">is_py2</td><td style="vertical-align:top;">:</td><td><div>True</div></td></tr><tr><td style="font-weight:bold;vertical-align:top;">is_pypy</td><td style="vertical-align:top;">:</td><td><div>False</div></td></tr><tr><td style="font-weight:bold;vertical-align:top;">is_source</td><td style="vertical-align:top;">:</td><td><div>True</div></td></tr><tr><td style="font-weight:bold;vertical-align:top;">local_hosts</td><td style="vertical-align:top;">:</td><td><div><table><tr><td><div>35.173.69.207</div></td></tr><tr><td><div>::ffff:127.0.0.1</div></td></tr><tr><td><div>::1</div></td></tr><tr><td><div>giles-liveweb10</div></td></tr><tr><td><div>localhost</div></td></tr><tr><td><div>utahgroup.pythonanywhere.com</div></td></tr><tr><td><div>127.0.0.1</div></td></tr></table></div></td></tr><tr><td style="font-weight:bold;vertical-align:top;">path_info</td><td style="vertical-align:top;">:</td><td><div>/welcome/appadmin/hooks</div></td></tr><tr><td style="font-weight:bold;vertical-align:top;">query_string</td><td style="vertical-align:top;">:</td><td><div></div></td></tr><tr><td style="font-weight:bold;vertical-align:top;">remote_addr</td><td style="vertical-align:top;">:</td><td><div>10.0.0.53</div></td></tr><tr><td style="font-weight:bold;vertical-align:top;">remote_port</td><td style="vertical-align:top;">:</td><td><div>44438</div></td></tr><tr><td style="font-weight:bold;vertical-align:top;">request_method</td><td style="vertical-align:top;">:</td><td><div>GET</div></td></tr><tr><td style="font-weight:bold;vertical-align:top;">request_uri</td><td style="vertical-align:top;">:</td><td><div>/welcome/appadmin/hooks</div></td></tr><tr><td style="font-weight:bold;vertical-align:top;">script_name</td><td style="vertical-align:top;">:</td><td><div></div></td></tr><tr><td style="font-weight:bold;vertical-align:top;">server_name</td><td style="vertical-align:top;">:</td><td><div>utahgroup.pythonanywhere.com</div></td></tr><tr><td style="font-weight:bold;vertical-align:top;">server_port</td><td style="vertical-align:top;">:</td><td><div>443</div></td></tr><tr><td style="font-weight:bold;vertical-align:top;">server_protocol</td><td style="vertical-align:top;">:</td><td><div>HTTP/1.1</div></td></tr><tr><td style="font-weight:bold;vertical-align:top;">uwsgi.node</td><td style="vertical-align:top;">:</td><td><div>giles-liveweb10</div></td></tr><tr><td style="font-weight:bold;vertical-align:top;">uwsgi.version</td><td style="vertical-align:top;">:</td><td><div>2.0.17.1</div></td></tr><tr><td style="font-weight:bold;vertical-align:top;">uwsgi_node</td><td style="vertical-align:top;">:</td><td><div>giles-liveweb10</div></td></tr><tr><td style="font-weight:bold;vertical-align:top;">uwsgi_version</td><td style="vertical-align:top;">:</td><td><div>2.0.17.1</div></td></tr><tr><td style="font-weight:bold;vertical-align:top;">web2py_path</td><td style="vertical-align:top;">:</td><td><div>/home/utahgroup/web2py</div></td></tr><tr><td style="font-weight:bold;vertical-align:top;">web2py_version</td><td style="vertical-align:top;">:</td><td><div>2.17.1-stable+timestamp.2018.08.06.01.02.56</div></td></tr><tr><td style="font-weight:bold;vertical-align:top;">wsgi.errors</td><td style="vertical-align:top;">:</td><td><div>&lt;uwsgi_file__bin_user_wsgi_wrapper.ErrorLogFile object at 0x7f0c40287c50&gt;</div></td></tr><tr><td style="font-weight:bold;vertical-align:top;">wsgi.file_wrapper</td><td style="vertical-align:top;">:</td><td><div>&lt;built-in function uwsgi_sendfile&gt;</div></td></tr><tr><td style="font-weight:bold;vertical-align:top;">wsgi.input</td><td style="vertical-align:top;">:</td><td><div>&lt;uwsgi._Input object at 0x7f0c41697b88&gt;</div></td></tr><tr><td style="font-weight:bold;vertical-align:top;">wsgi.multiprocess</td><td style="vertical-align:top;">:</td><td><div>True</div></td></tr><tr><td style="font-weight:bold;vertical-align:top;">wsgi.multithread</td><td style="vertical-align:top;">:</td><td><div>False</div></td></tr><tr><td style="font-weight:bold;vertical-align:top;">wsgi.run_once</td><td style="vertical-align:top;">:</td><td><div>False</div></td></tr><tr><td style="font-weight:bold;vertical-align:top;">wsgi.url_scheme</td><td style="vertical-align:top;">:</td><td><div>https</div></td></tr><tr><td style="font-weight:bold;vertical-align:top;">wsgi.version</td><td style="vertical-align:top;">:</td><td><div><table><tr><td><div>1</div></td></tr><tr><td><div>0</div></td></tr></table></div></td></tr><tr><td style="font-weight:bold;vertical-align:top;">wsgi_errors</td><td style="vertical-align:top;">:</td><td><div>&lt;uwsgi_file__bin_user_wsgi_wrapper.ErrorLogFile object at 0x7f0c40287c50&gt;</div></td></tr><tr><td style="font-weight:bold;vertical-align:top;">wsgi_file_wrapper</td><td style="vertical-align:top;">:</td><td><div>&lt;built-in function uwsgi_sendfile&gt;</div></td></tr><tr><td style="font-weight:bold;vertical-align:top;">wsgi_input</td><td style="vertical-align:top;">:</td><td><div>&lt;uwsgi._Input object at 0x7f0c41697b88&gt;</div></td></tr><tr><td style="font-weight:bold;vertical-align:top;">wsgi_multiprocess</td><td style="vertical-align:top;">:</td><td><div>True</div></td></tr><tr><td style="font-weight:bold;vertical-align:top;">wsgi_multithread</td><td style="vertical-align:top;">:</td><td><div>False</div></td></tr><tr><td style="font-weight:bold;vertical-align:top;">wsgi_run_once</td><td style="vertical-align:top;">:</td><td><div>False</div></td></tr><tr><td style="font-weight:bold;vertical-align:top;">wsgi_url_scheme</td><td style="vertical-align:top;">:</td><td><div>https</div></td></tr><tr><td style="font-weight:bold;vertical-align:top;">wsgi_version</td><td style="vertical-align:top;">:</td><td><div><table><tr><td><div>1</div></td></tr><tr><td><div>0</div></td></tr></table></div></td></tr></table></div></td></tr><tr><td style="font-weight:bold;vertical-align:top;">extension</td><td style="vertical-align:top;">:</td><td><div>html</div></td></tr><tr><td style="font-weight:bold;vertical-align:top;">folder</td><td style="vertical-align:top;">:</td><td><div>/home/utahgroup/web2py/applications/welcome/</div></td></tr><tr><td style="font-weight:bold;vertical-align:top;">function</td><td style="vertical-align:top;">:</td><td><div>hooks</div></td></tr><tr><td style="font-weight:bold;vertical-align:top;">global_settings</td><td style="vertical-align:top;">:</td><td><div><table><tr><td style="font-weight:bold;vertical-align:top;">app_folders</td><td style="vertical-align:top;">:</td><td><div>set([&#x27;/home/utahgroup/web2py/applications/welcome/&#x27;, &#x27;/home/utahgroup/web2py/applications/admin/&#x27;])</div></td></tr><tr><td style="font-weight:bold;vertical-align:top;">applications_parent</td><td style="vertical-align:top;">:</td><td><div>/home/utahgroup/web2py</div></td></tr><tr><td style="font-weight:bold;vertical-align:top;">db_sessions</td><td style="vertical-align:top;">:</td><td><div>set([])</div></td></tr><tr><td style="font-weight:bold;vertical-align:top;">debugging</td><td style="vertical-align:top;">:</td><td><div>True</div></td></tr><tr><td style="font-weight:bold;vertical-align:top;">gluon_parent</td><td style="vertical-align:top;">:</td><td><div>/home/utahgroup/web2py</div></td></tr><tr><td style="font-weight:bold;vertical-align:top;">is_jython</td><td style="vertical-align:top;">:</td><td><div>False</div></td></tr><tr><td style="font-weight:bold;vertical-align:top;">is_py2</td><td style="vertical-align:top;">:</td><td><div>True</div></td></tr><tr><td style="font-weight:bold;vertical-align:top;">is_pypy</td><td style="vertical-align:top;">:</td><td><div>False</div></td></tr><tr><td style="font-weight:bold;vertical-align:top;">is_source</td><td style="vertical-align:top;">:</td><td><div>True</div></td></tr><tr><td style="font-weight:bold;vertical-align:top;">local_hosts</td><td style="vertical-align:top;">:</td><td><div><table><tr><td><div>35.173.69.207</div></td></tr><tr><td><div>::ffff:127.0.0.1</div></td></tr><tr><td><div>::1</div></td></tr><tr><td><div>giles-liveweb10</div></td></tr><tr><td><div>localhost</div></td></tr><tr><td><div>utahgroup.pythonanywhere.com</div></td></tr><tr><td><div>127.0.0.1</div></td></tr></table></div></td></tr><tr><td style="font-weight:bold;vertical-align:top;">web2py_version</td><td style="vertical-align:top;">:</td><td><div>2.17.1-stable+timestamp.2018.08.06.01.02.56</div></td></tr></table></div></td></tr><tr><td style="font-weight:bold;vertical-align:top;">is_https</td><td style="vertical-align:top;">:</td><td><div>True</div></td></tr><tr><td style="font-weight:bold;vertical-align:top;">is_local</td><td style="vertical-align:top;">:</td><td><div>False</div></td></tr><tr><td style="font-weight:bold;vertical-align:top;">is_restful</td><td style="vertical-align:top;">:</td><td><div>False</div></td></tr><tr><td style="font-weight:bold;vertical-align:top;">is_scheduler</td><td style="vertical-align:top;">:</td><td><div>False</div></td></tr><tr><td style="font-weight:bold;vertical-align:top;">is_shell</td><td style="vertical-align:top;">:</td><td><div>False</div></td></tr><tr><td style="font-weight:bold;vertical-align:top;">method</td><td style="vertical-align:top;">:</td><td><div>GET</div></td></tr><tr><td style="font-weight:bold;vertical-align:top;">now</td><td style="vertical-align:top;">:</td><td><div>datetime.datetime(2019, 3, 6, 23, 4, 42, 27158)</div></td></tr><tr><td style="font-weight:bold;vertical-align:top;">raw_args</td><td style="vertical-align:top;">:</td><td><div></div></td></tr><tr><td style="font-weight:bold;vertical-align:top;">raw_extension</td><td style="vertical-align:top;">:</td><td><div>None</div></td></tr><tr><td style="font-weight:bold;vertical-align:top;">url</td><td style="vertical-align:top;">:</td><td><div>/welcome/appadmin/hooks</div></td></tr><tr><td style="font-weight:bold;vertical-align:top;">utcnow</td><td style="vertical-align:top;">:</td><td><div>datetime.datetime(2019, 3, 6, 23, 4, 42, 27181)</div></td></tr><tr><td style="font-weight:bold;vertical-align:top;">wsgi</td><td style="vertical-align:top;">:</td><td><div>&lt;gluon.main.LazyWSGI object at 0x7f0c38bb5b90&gt;</div></td></tr></table></div>'
tRp72
sS'frames'
p73
(lp74
(dp75
S'file'
p76
S'/home/utahgroup/web2py/gluon/restricted.py'
p77
sS'dump'
p78
(dp79
S'environment'
p80
S"{'A': <class 'gluon.html.A'>, 'ANY_OF': <class 'gluon.validators.ANY_OF'>, 'ASSIGNJS': <function ASSIGNJS>, 'AppConfig': <function AppConfig>, 'Auth': <class 'gluon.tools.Auth'>, 'B': <class 'gluon.html.B'>, 'BEAUTIFY': <class 'gluon.html.BEAUTIFY'>, 'BODY': <class 'gluon.html.BODY'>, 'BR': <class 'gluon.html.BR'>, 'BUTTON': <class 'gluon.html.BUTTON'>, ...}"
p81
sS'ccode'
p82
S'<code object <module> at 0x7f0c3931abb0, file "/...eb2py/applications/welcome/models/db.py", line 7>'
p83
ssS'lnum'
p84
I219
sS'lines'
p85
(dp86
I214
S'    if environment is None:'
p87
sI215
S'        environment = {}'
p88
sI216
S"    environment['__file__'] = layer"
p89
sI217
S"    environment['__name__'] = '__restricted__'"
p90
sI218
S'    try:'
p91
sI219
S'        exec(ccode, environment)'
p92
sI220
S'    except HTTP:'
p93
sI221
S'        raise'
p94
sI222
S'    except RestrictedError:'
p95
sI223
S'        # do not encapsulate (obfuscate) the original RestrictedError'
p96
ssS'call'
p97
S'(ccode=<code object <module> at 0x7f0c3931abb0, file "/...eb2py/applications/welcome/models/db.py", line 7>, environment={\'A\': <class \'gluon.html.A\'>, \'ANY_OF\': <class \'gluon.validators.ANY_OF\'>, \'ASSIGNJS\': <function ASSIGNJS>, \'AppConfig\': <function AppConfig>, \'Auth\': <class \'gluon.tools.Auth\'>, \'B\': <class \'gluon.html.B\'>, \'BEAUTIFY\': <class \'gluon.html.BEAUTIFY\'>, \'BODY\': <class \'gluon.html.BODY\'>, \'BR\': <class \'gluon.html.BR\'>, \'BUTTON\': <class \'gluon.html.BUTTON\'>, ...}, layer=\'/home/utahgroup/web2py/applications/welcome/models/db.py\', scode=<code object <module> at 0x7f0c3931abb0, file "/...eb2py/applications/welcome/models/db.py", line 7>)'
p98
sS'func'
p99
S'restricted'
p100
sa(dp101
g76
S'/home/utahgroup/web2py/applications/welcome/models/db.py'
p102
sg78
(dp103
S'migrate'
p104
S'undefined'
p105
sS'Field'
p106
S"<class 'pydal.objects.Field'>"
p107
sS'db.define_table'
p108
S'<bound method DAL.define_table of <DAL uri="mysq...sql.pythonanywhere-services.com/utahgroup$mydb">>'
p109
sS'db'
p110
S'<DAL uri="mysql:******@utahgroup.mysql.pythonanywhere-services.com/utahgroup$mydb">'
p111
sS'builtintype'
p112
S"<type 'type'>"
p113
ssg84
I116
sg85
(dp114
I111
S'auth.settings.registration_requires_approval = False'
p115
sI112
S'auth.settings.reset_password_requires_verification = True'
p116
sI113
S''
sI114
S"db.define_table('Meteorite_table',Field('mass', type = 'double'),Field('GeoLocation', type = 'string'),Field('name', type = 'string'),Field('class_met', 'string'),Field('year_seen', type = 'integer'),migrate='Meteorite_table')"
p117
sI115
S''
sI116
S"db.define_table('UFO_table',Field('datetime', type = 'datetime'), Field('GeoLocation', type = 'string'),Field('shape',type='string'),Field('comments',type='string'),Field('duration_sec',type = 'int'),migrate='UFO_table')"
p118
sI117
S''
sI118
S"db.define_table('Location_table',Field('GeoLocation', type = 'string'),Field('latitude',type = 'float'),Field('longitude', type = 'float'),Field('city',type = 'string'),Field('state',type='string'),Field('country', type = 'string'),migrate='Location_table')"
p119
sI119
S''
sI120
S''
ssg97
S'()'
p120
sg99
S'<module>'
p121
sa(dp122
g76
S'/home/utahgroup/web2py/gluon/packages/dal/pydal/base.py'
p123
sg78
(dp124
S'fields'
p125
S'(<pydal.objects.Field object>, <pydal.objects.Field object>, <pydal.objects.Field object>, <pydal.objects.Field object>, <pydal.objects.Field object>)'
p126
sS'self'
p127
S'<DAL uri="mysql:******@utahgroup.mysql.pythonanywhere-services.com/utahgroup$mydb">'
p128
sS'tablename'
p129
S"'UFO_table'"
p130
sS'kwargs'
p131
S"{'migrate': 'UFO_table'}"
p132
sS'table'
p133
g105
sS'self.lazy_define_table'
p134
S'<bound method DAL.lazy_define_table of <DAL uri=...sql.pythonanywhere-services.com/utahgroup$mydb">>'
p135
ssg84
I590
sg85
(dp136
I585
S'        if self._lazy_tables:'
p137
sI586
S'            if tablename not in self._LAZY_TABLES or redefine:'
p138
sI587
S'                self._LAZY_TABLES[tablename] = (tablename, fields, kwargs)'
p139
sI588
S'            table = None'
p140
sI589
S'        else:'
p141
sI590
S'            table = self.lazy_define_table(tablename, *fields, **kwargs)'
p142
sI591
S'        if tablename not in self.tables:'
p143
sI592
S'            self.tables.append(tablename)'
p144
sI593
S'        return table'
p145
sI594
S''
ssg97
S'(self=<DAL uri="mysql:******@utahgroup.mysql.pythonanywhere-services.com/utahgroup$mydb">, tablename=\'UFO_table\', *fields=(<pydal.objects.Field object>, <pydal.objects.Field object>, <pydal.objects.Field object>, <pydal.objects.Field object>, <pydal.objects.Field object>), **kwargs={\'migrate\': \'UFO_table\'})'
p146
sg99
S'define_table'
p147
sa(dp148
g76
S'/home/utahgroup/web2py/gluon/packages/dal/pydal/base.py'
p149
sg78
(dp150
S'polymodel'
p151
S'None'
p152
ssg84
I624
sg85
(dp153
I619
S'            try:'
p154
sI620
S'                GLOBAL_LOCKER.acquire()'
p155
sI621
S'                self._adapter.create_table('
p156
sI622
S'                    table, migrate=migrate,'
p157
sI623
S'                    fake_migrate=fake_migrate,'
p158
sI624
S'                    polymodel=polymodel)'
p159
sI625
S'            finally:'
p160
sI626
S'                GLOBAL_LOCKER.release()'
p161
sI627
S'        else:'
p162
sI628
S'            table._dbt = None'
p163
ssg97
S'(self=<DAL uri="mysql:******@utahgroup.mysql.pythonanywhere-services.com/utahgroup$mydb">, tablename=\'UFO_table\', *fields=(<pydal.objects.Field object>, <pydal.objects.Field object>, <pydal.objects.Field object>, <pydal.objects.Field object>, <pydal.objects.Field object>), **kwargs={\'migrate\': \'UFO_table\'})'
p164
sg99
S'lazy_define_table'
p165
sa(dp166
g76
S'/home/utahgroup/web2py/gluon/packages/dal/pydal/adapters/base.py'
p167
sg78
(dp168
S'self'
p169
S'<pydal.adapters.mysql.MySQL object>'
p170
sS'args'
p171
S'(<Table UFO_table (id, datetime, GeoLocation, shape, comments, duration_sec)>,)'
p172
sS'self.migrator'
p173
S'<pydal.migrator.Migrator object>'
p174
sS'self.migrator.create_table'
p175
S'<bound method Migrator.create_table of <pydal.migrator.Migrator object>>'
p176
sS'kwargs'
p177
S"{'fake_migrate': False, 'migrate': 'UFO_table', 'polymodel': None}"
p178
ssg84
I798
sg85
(dp179
I800
S'    def _drop_table_cleanup(self, table):'
p180
sI801
S'        super(SQLAdapter, self)._drop_table_cleanup(table)'
p181
sI802
S'        if table._dbt:'
p182
sI793
S''
sI794
S'    def bulk_insert(self, table, items):'
p183
sI795
S'        return [self.insert(table, item) for item in items]'
p184
sI796
S''
sI797
S'    def create_table(self, *args, **kwargs):'
p185
sI798
S'        return self.migrator.create_table(*args, **kwargs)'
p186
sI799
S''
ssg97
S"(self=<pydal.adapters.mysql.MySQL object>, *args=(<Table UFO_table (id, datetime, GeoLocation, shape, comments, duration_sec)>,), **kwargs={'fake_migrate': False, 'migrate': 'UFO_table', 'polymodel': None})"
p187
sg99
S'create_table'
p188
sa(dp189
g76
S'/home/utahgroup/web2py/gluon/packages/dal/pydal/migrator.py'
p190
sg78
(dp191
S'field_type'
p192
S"'int'"
p193
sS'field_name'
p194
S"'duration_sec'"
p195
ssg84
I168
sg85
(dp196
I163
S'                                         fieldname=field._raw_rname, srid=srid,'
p197
sI164
S'                                         dimension=dimension)'
p198
sI165
S'                    postcreation_fields.append(ftype)'
p199
sI166
S'            elif field_type not in types:'
p200
sI167
S"                raise SyntaxError('Field: unknown field type: %s for %s' % ("
p201
sI168
S'                    field_type, field_name))'
p202
sI169
S'            else:'
p203
sI170
S"                ftype = types[field_type] % {'length': field.length}"
p204
sI171
S''
sI172
S"            if not field_type.startswith(('id', 'reference', 'big-reference')):"
p205
ssg97
S"(self=<pydal.migrator.Migrator object>, table=<Table UFO_table (id, datetime, GeoLocation, shape, comments, duration_sec)>, migrate='UFO_table', fake_migrate=False, polymodel=None)"
p206
sg99
g188
sasS'pyver'
p207
S'Python 2.7.12: /usr/local/bin/uwsgi (prefix: /usr)'
p208
sS'session'
p209
g71
(S's\x1a\x00\x00\x00<div><table></table></div>'
tRp210
sS'etype'
p211
S"<type 'exceptions.SyntaxError'>"
p212
sS'date'
p213
S'Wed Mar  6 23:04:42 2019'
p214
sS'response'
p215
g71
(S's&\x16\x00\x00<div><table><tr><td style="font-weight:bold;vertical-align:top;">body</td><td style="vertical-align:top;">:</td><td><div>&lt;cStringIO.StringO object at 0x7f0c39824c38&gt;</div></td></tr><tr><td style="font-weight:bold;vertical-align:top;">cookies</td><td style="vertical-align:top;">:</td><td><div><table><tr><td style="font-weight:bold;vertical-align:top;">session_id_welcome</td><td style="vertical-align:top;">:</td><td><div>65.130.204.61-5da0a6a1-0ca1-45ce-9017-bd9aae7a78ca<table><tr><td style="font-weight:bold;vertical-align:top;">comment</td><td style="vertical-align:top;">:</td><td><div></div></td></tr><tr><td style="font-weight:bold;vertical-align:top;">domain</td><td style="vertical-align:top;">:</td><td><div></div></td></tr><tr><td style="font-weight:bold;vertical-align:top;">expires</td><td style="vertical-align:top;">:</td><td><div></div></td></tr><tr><td style="font-weight:bold;vertical-align:top;">httponly</td><td style="vertical-align:top;">:</td><td><div></div></td></tr><tr><td style="font-weight:bold;vertical-align:top;">max-age</td><td style="vertical-align:top;">:</td><td><div></div></td></tr><tr><td style="font-weight:bold;vertical-align:top;">path</td><td style="vertical-align:top;">:</td><td><div>/</div></td></tr><tr><td style="font-weight:bold;vertical-align:top;">secure</td><td style="vertical-align:top;">:</td><td><div></div></td></tr><tr><td style="font-weight:bold;vertical-align:top;">version</td><td style="vertical-align:top;">:</td><td><div></div></td></tr></table></div></td></tr></table></div></td></tr><tr><td style="font-weight:bold;vertical-align:top;">delimiters</td><td style="vertical-align:top;">:</td><td><div><table><tr><td><div>{{</div></td></tr><tr><td><div>}}</div></td></tr></table></div></td></tr><tr><td style="font-weight:bold;vertical-align:top;">files</td><td style="vertical-align:top;">:</td><td><div><table></table></div></td></tr><tr><td style="font-weight:bold;vertical-align:top;">flash</td><td style="vertical-align:top;">:</td><td><div></div></td></tr><tr><td style="font-weight:bold;vertical-align:top;">form_label_separator</td><td style="vertical-align:top;">:</td><td><div></div></td></tr><tr><td style="font-weight:bold;vertical-align:top;">formstyle</td><td style="vertical-align:top;">:</td><td><div>bootstrap4_inline</div></td></tr><tr><td style="font-weight:bold;vertical-align:top;">generic_patterns</td><td style="vertical-align:top;">:</td><td><div><table></table></div></td></tr><tr><td style="font-weight:bold;vertical-align:top;">headers</td><td style="vertical-align:top;">:</td><td><div><table><tr><td style="font-weight:bold;vertical-align:top;">X-Powered-By</td><td style="vertical-align:top;">:</td><td><div>web2py</div></td></tr></table></div></td></tr><tr><td style="font-weight:bold;vertical-align:top;">menu</td><td style="vertical-align:top;">:</td><td><div><table></table></div></td></tr><tr><td style="font-weight:bold;vertical-align:top;">meta</td><td style="vertical-align:top;">:</td><td><div><table></table></div></td></tr><tr><td style="font-weight:bold;vertical-align:top;">models_to_run</td><td style="vertical-align:top;">:</td><td><div><table><tr><td><div>^\\w+\\.py$</div></td></tr><tr><td><div>^appadmin/\\w+\\.py$</div></td></tr><tr><td><div>^appadmin/hooks/\\w+\\.py$</div></td></tr></table></div></td></tr><tr><td style="font-weight:bold;vertical-align:top;">postprocessing</td><td style="vertical-align:top;">:</td><td><div><table></table></div></td></tr><tr><td style="font-weight:bold;vertical-align:top;">session_client</td><td style="vertical-align:top;">:</td><td><div>65.130.204.61</div></td></tr><tr><td style="font-weight:bold;vertical-align:top;">session_cookie_compression_level</td><td style="vertical-align:top;">:</td><td><div>None</div></td></tr><tr><td style="font-weight:bold;vertical-align:top;">session_cookie_expires</td><td style="vertical-align:top;">:</td><td><div>None</div></td></tr><tr><td style="font-weight:bold;vertical-align:top;">session_data_name</td><td style="vertical-align:top;">:</td><td><div>session_data_welcome</div></td></tr><tr><td style="font-weight:bold;vertical-align:top;">session_file</td><td style="vertical-align:top;">:</td><td><div>None</div></td></tr><tr><td style="font-weight:bold;vertical-align:top;">session_filename</td><td style="vertical-align:top;">:</td><td><div>/home/utahgroup/web2py/applications/welcome/sessions/65.130.204.61-5da0a6a1-0ca1-45ce-9017-bd9aae7a78ca</div></td></tr><tr><td style="font-weight:bold;vertical-align:top;">session_hash</td><td style="vertical-align:top;">:</td><td><div>c0762cbf4baf7f9af97c051e7fcb8083</div></td></tr><tr><td style="font-weight:bold;vertical-align:top;">session_id</td><td style="vertical-align:top;">:</td><td><div>65.130.204.61-5da0a6a1-0ca1-45ce-9017-bd9aae7a78ca</div></td></tr><tr><td style="font-weight:bold;vertical-align:top;">session_id_name</td><td style="vertical-align:top;">:</td><td><div>session_id_welcome</div></td></tr><tr><td style="font-weight:bold;vertical-align:top;">session_masterapp</td><td style="vertical-align:top;">:</td><td><div>welcome</div></td></tr><tr><td style="font-weight:bold;vertical-align:top;">session_new</td><td style="vertical-align:top;">:</td><td><div>True</div></td></tr><tr><td style="font-weight:bold;vertical-align:top;">session_storage_type</td><td style="vertical-align:top;">:</td><td><div>file</div></td></tr><tr><td style="font-weight:bold;vertical-align:top;">status</td><td style="vertical-align:top;">:</td><td><div>200</div></td></tr><tr><td style="font-weight:bold;vertical-align:top;">view</td><td style="vertical-align:top;">:</td><td><div>appadmin/hooks.html</div></td></tr></table></div>'
tRp216
sS'locals'
p217
(dp218
S'polymodel'
p219
S'None'
p220
sS'field_type'
p221
S"'int'"
p222
sS'sortable'
p223
S'6'
sS'sql_fields_aux'
p224
S"{'GeoLocation': {'sql': 'VARCHAR(512)'}, 'comments': {'sql': 'VARCHAR(512)'}, 'datetime': {'sql': 'DATETIME'}, 'id': {'sql': 'INT AUTO_INCREMENT NOT NULL'}, 'shape': {'sql': 'VARCHAR(512)'}}"
p225
sS'TFK'
p226
g21
sS'postcreation_fields'
p227
S'[]'
p228
sS'migrate'
p229
S"'UFO_table'"
p230
sS'fields'
p231
S"['`id` INT AUTO_INCREMENT NOT NULL', '`datetime` DATETIME', '`GeoLocation` VARCHAR(512)', '`shape` VARCHAR(512)', '`comments` VARCHAR(512)']"
p232
sS'self'
p233
S'<pydal.migrator.Migrator object>'
p234
sS'tablename'
p235
S"'UFO_table'"
p236
sS'fake_migrate'
p237
S'False'
p238
sS'db'
p239
S'<DAL uri="mysql:******@utahgroup.mysql.pythonanywhere-services.com/utahgroup$mydb">'
p240
sS'field'
p241
S'<pydal.objects.Field object>'
p242
sS'ftype'
p243
S"'VARCHAR(512)'"
p244
sS'table'
p245
S'<Table UFO_table (id, datetime, GeoLocation, shape, comments, duration_sec)>'
p246
sS'sql_fields'
p247
S"{'GeoLocation': {'length': 512, 'notnull': False, 'raw_rname': 'GeoLocation', 'rname': '`GeoLocation`', 'sortable': 3, 'sql': 'VARCHAR(512)', 'type': 'string', 'unique': False}, 'comments': {'length': 512, 'notnull': False, 'raw_rname': 'comments', 'rname': '`comments`', 'sortable': 5, 'sql': 'VARCHAR(512)', 'type': 'string', 'unique': False}, 'datetime': {'length': 512, 'notnull': False, 'raw_rname': 'datetime', 'rname': '`datetime`', 'sortable': 2, 'sql': 'DATETIME', 'type': 'datetime', 'unique': False}, 'id': {'length': 512, 'notnull': False, 'raw_rname': 'id', 'rname': '`id`', 'sortable': 1, 'sql': 'INT AUTO_INCREMENT NOT NULL', 'type': 'id', 'unique': False}, 'shape': {'length': 512, 'notnull': False, 'raw_rname': 'shape', 'rname': '`shape`', 'sortable': 4, 'sql': 'VARCHAR(512)', 'type': 'string', 'unique': False}}"
p248
sS'field_name'
p249
S"'duration_sec'"
p250
sS'types'
p251
S"{'big-id': 'BIGINT AUTO_INCREMENT NOT NULL', 'big-reference': 'BIGINT %(null)s %(unique)s, INDEX %(index_name)s...ES %(foreign_key)s ON DELETE %(on_delete_action)s', 'bigint': 'BIGINT', 'blob': 'LONGBLOB', 'boolean': 'CHAR(1)', 'date': 'DATE', 'datetime': 'DATETIME', 'decimal': 'NUMERIC(%(precision)s,%(scale)s)', 'double': 'DOUBLE', 'float': 'FLOAT', ...}"
p252
sssS'traceback'
p253
S'Traceback (most recent call last):\n  File "/home/utahgroup/web2py/gluon/restricted.py", line 219, in restricted\n    exec(ccode, environment)\n  File "/home/utahgroup/web2py/applications/welcome/models/db.py", line 116, in <module>\n    db.define_table(\'UFO_table\',Field(\'datetime\', type = \'datetime\'), Field(\'GeoLocation\', type = \'string\'),Field(\'shape\',type=\'string\'),Field(\'comments\',type=\'string\'),Field(\'duration_sec\',type = \'int\'),migrate=\'UFO_table\')\n  File "/home/utahgroup/web2py/gluon/packages/dal/pydal/base.py", line 590, in define_table\n    table = self.lazy_define_table(tablename, *fields, **kwargs)\n  File "/home/utahgroup/web2py/gluon/packages/dal/pydal/base.py", line 624, in lazy_define_table\n    polymodel=polymodel)\n  File "/home/utahgroup/web2py/gluon/packages/dal/pydal/adapters/base.py", line 798, in create_table\n    return self.migrator.create_table(*args, **kwargs)\n  File "/home/utahgroup/web2py/gluon/packages/dal/pydal/migrator.py", line 168, in create_table\n    field_type, field_name))\nSyntaxError: Field: unknown field type: int for duration_sec\n'
p254
s.