(dp1
S'output'
p2
S'missing "pass" in view'
p3
sS'layer'
p4
S'ParserContainer'
p5
sS'code'
p6
S'response.write(\'<!DOCTYPE html>\\n<!--[if (gt IE 9)|!(IE)]><!--> <html class="no-js" lang="\', escape=False)\nresponse.write(T.accepted_language or \'en\')\nresponse.write(\'"> <!--<![endif]-->\\n  <head>\\n    <meta charset="utf-8">\\n    <!-- www.phpied.com/conditional-comments-block-downloads/ -->\\n    <!-- Always force latest IE rendering engine\\n         (even in intranet) & Chrome Frame\\n         Remove this if you use the .htaccess -->\\n    <meta http-equiv="X-UA-Compatible" content="IE=edge\', escape=False)\nresponse.write(not request.is_local and \',chrome=1\' or \'\')\nresponse.write(\'">\\n    <!--  Mobile Viewport Fix\\n          j.mp/mobileviewport & davidbcalhoun.com/2010/viewport-metatag\\n          device-width: Occupy full width of the screen in its current orientation\\n          initial-scale = 1.0 retains dimensions instead of zooming out if page height > device height\\n          user-scalable = yes allows the user to zoom in -->\\n    <meta name="viewport" content="width=device-width, initial-scale=1.0">\\n    <title>\', escape=False)\nresponse.write(response.title or request.application)\nresponse.write(\'</title>\\n    <!-- http://dev.w3.org/html5/markup/meta.name.html -->\\n    <meta name="application-name" content="\', escape=False)\nresponse.write(request.application)\nresponse.write(\'">\\n    <!-- Speaking of Google, don\\\'t forget to set your site up:\\n         http://google.com/webmasters -->\\n    <meta name="google-site-verification" content="">\\n    <!-- include stylesheets -->\\n    <link rel="stylesheet" href="https://cdnjs.cloudflare.com/ajax/libs/font-awesome/4.7.0/css/font-awesome.min.css"/>\\n    <link rel="stylesheet" href="\', escape=False)\nresponse.write(URL(\'static\',\'css/bootstrap.min.css\'))\nresponse.write(\'"/>\\n    <link rel="stylesheet" href="\', escape=False)\nresponse.write(URL(\'static\',\'css/web2py-bootstrap4.css\'))\nresponse.write(\'"/>\\n    <link rel="shortcut icon" href="\', escape=False)\nresponse.write(URL(\'static\',\'images/favicon.ico\'))\nresponse.write(\'" type="image/x-icon">\\n    <link rel="apple-touch-icon" href="\', escape=False)\nresponse.write(URL(\'static\',\'images/favicon.png\'))\nresponse.write(\'">\\n    <!-- All JavaScript at the bottom, except for Modernizr which enables\\n         HTML5 elements & feature detects -->\\n    <script src="\', escape=False)\nresponse.write(URL(\'static\',\'js/modernizr-2.8.3.min.js\'))\nresponse.write(\'"></script>\\n    <!-- Favicons -->\\n    \', escape=False)\nresponse.write(\'<script type="text/javascript"><!--\\n    // These variables are used by the web2py_ajax_init function in web2py_ajax.js (which is loaded below).\\n    \', escape=False)\nresponse.write(ASSIGNJS(\nw2p_ajax_confirm_message = T(\'Are you sure you want to delete this object?\'),\nw2p_ajax_disable_with_message = T(\'Working...\'),\nw2p_ajax_date_format = T(\'%Y-%m-%d\'),\nw2p_ajax_datetime_format = T(\'%Y-%m-%d %H:%M:%S\'),\najax_error_500 = T.M(\'An error occured, please [[reload %s]] the page\') % URL(args=request.args, vars=request.get_vars)\n))\nresponse.write(\'\\n    //--></script>\\n\', escape=False)\nresponse.files.insert(0,URL(\'static\',\'js/jquery.js\'))\nresponse.files.insert(1,URL(\'static\',\'css/calendar.css\'))\nresponse.files.insert(2,URL(\'static\',\'js/calendar.js\'))\nresponse.files.insert(3,URL(\'static\',\'js/web2py.js\'))\nresponse.include_meta()\nresponse.include_files()\nresponse.write(\'\\n\', escape=False)\nresponse.write(\' <!-- this includes jquery.js, calendar.js/.css and web2py.js -->\\n    \', escape=False)\nresponse.write(\'\\n  </head>\\n  <body>\\n    <div class="w2p_flash alert alert-dismissable">\', escape=False)\nresponse.write(response.flash or \'\')\nresponse.write(\'</div>\\n    <!-- Navbar ======================================= -->\\n    <nav class="navbar navbar-light navbar-expand-md bg-faded justify-content-center">\\n       <a href="https://utahgroup.pythonanywhere.com/welcome/homepage/home" class="navbar-brand d-flex w-50 mr-auto">UFO/Meteorite Finder</a>\\n       <button class="navbar-toggler" type="button" data-toggle="collapse" data-target="#navbarNavDropdown" aria-controls="navbarNavDropdown" aria-expanded="false" aria-label="Toggle navigation">\\n         <span class="navbar-toggler-icon"></span>\\n       </button>\\n       <div class="navbar-collapse collapse w-100" id="navbarNavDropdown">\\n         <ul class="navbar-nav w-100 justify-content-center">\\n          \', escape=False)\nfor _item in response.menu or []:\n    response.write(\'\\n          \', escape=False)\n    if len(_item)<4 or not _item[3]:\n        response.write(\'\\n          <li class="nav-item \', escape=False)\n        if _item[1]:\n            response.write(\'active\', escape=False)\n            pass\n        response.write(\'">\\n            <a class="nav-link" href="\', escape=False)\n        response.write(_item[2])\n        response.write(\'">\', escape=False)\n        response.write(_item[0])\n        response.write(\'</a>\\n          </li>\\n          \', escape=False)\n    else:\n        response.write(\'\\n          <li class="nav-item dropdown">\\n            <a class="nav-link dropdown-toggle" href="\', escape=False)\n        response.write(_item[2])\n        response.write(\'" data-toggle="dropdown" aria-haspopup="true" aria-expanded="false">\', escape=False)\n        response.write(_item[0])\n        response.write(\'</a>\\n            <div class="dropdown-menu">\\n              \', escape=False)\n        for _subitem in _item[3]:\n            response.write(\'\\n              <a class="dropdown-item" href="\', escape=False)\n            response.write(_subitem[2])\n            response.write(\'">\', escape=False)\n            response.write(_subitem[0])\n            response.write(\'</a>\\n              \', escape=False)\n            pass\n        response.write(\'\\n            </div>\\n          </li>\\n          \', escape=False)\n        pass\n    response.write(\'\\n          \', escape=False)\n    pass\nresponse.write(\'\\n        </ul>\\n<!-- Commented out unless we need it for something.\\n         <form class="form-inline my-2 my-lg-0">\\n             <input class="form-control mr-sm-2" type="text" placeholder="Search">\\n         </form>\\n-->\\n        \', escape=False)\nif \'auth\' in globals():\n    response.write(\'\\n        <ul class="nav navbar-nav ml-auto w-100 justify-content-end">\\n          <li class="nav-item dropdown">\\n            <a class="nav-link dropdown-toggle" href="#" data-toggle="dropdown" aria-haspopup="true" aria-expanded="false">\\n              \', escape=False)\n    if auth.user:\n        response.write(auth.user.first_name)\n    else:\n        response.write(\'LOGIN\', escape=False)\n        pass\n    response.write(\'\\n            </a>\\n            <div class="dropdown-menu dropdown-menu-right">\\n              \', escape=False)\n    if auth.user:\n        response.write(\'\\n              <a class="dropdown-item" href="\', escape=False)\n        response.write(URL(\'default\',\'user/profile\'))\n        response.write(\'">\', escape=False)\n        response.write(T(\'Profile\'))\n        response.write(\'</a>\\n              \', escape=False)\n        if \'change_password\' not in auth.settings.actions_disabled:\n            response.write(\'\\n              <a class="dropdown-item" href="\', escape=False)\n            response.write(URL(\'default\',\'user/change_password\'))\n            response.write(\'">\', escape=False)\n            response.write(T(\'Change Password\'))\n            response.write(\'</a>\\n              \', escape=False)\n            pass\n        response.write(\'\\n              <a class="dropdown-item" href="\', escape=False)\n        response.write(URL(\'default\',\'user/logout\'))\n        response.write(\'">\', escape=False)\n        response.write(T(\'Logout\'))\n        response.write(\'</a>\\n              \', escape=False)\n    else:\n        response.write(\'\\n              <a class="dropdown-item" href="\', escape=False)\n        response.write(URL(\'default\',\'user/login\'))\n        response.write(\'">\', escape=False)\n        response.write(T(\'Login\'))\n        response.write(\'</a>\\n              \', escape=False)\n        if \'register\' not in auth.settings.actions_disabled:\n            response.write(\'\\n              <a class="dropdown-item" href="\', escape=False)\n            response.write(URL(\'default\',\'user/register\'))\n            response.write(\'">\', escape=False)\n            response.write(T(\'Sign up\'))\n            response.write(\'</a>\\n              \', escape=False)\n            pass\n        response.write(\'\\n              \', escape=False)\n        if \'retrieve_password\' not in auth.settings.actions_disabled:\n            response.write(\'\\n              <a class="dropdown-item" href="\', escape=False)\n            response.write(URL(\'default\',\'user/retrieve_password\'))\n            response.write(\'">\', escape=False)\n            response.write(T(\'Lost Password\'))\n            response.write(\'</a>\\n              \', escape=False)\n            pass\n        response.write(\'\\n              \', escape=False)\n        pass\n    response.write(\'\\n            </div>\\n          </li>\\n        </ul>\\n        \', escape=False)\n    pass\nresponse.write(\'\\n      </div>\\n    </nav>\\n\\n    <!-- Masthead ===================================== -->\\n    \', escape=False)\nresponse.write(\'\\n    \', escape=False)\nresponse.write(\'\\n    <!-- Main ========================================= -->\\n    <!-- Begin page content -->\\n    <div class="container-fluid main-container">\\n      \', escape=False)\nresponse.write(\'\\n<hr>\\n<h1 style="text-align: center; margin-top: 50px;">UFO Sigthings</h1>\\n<div align = "center">\\n    <form action=set_filter()>\\n        <p style="display:inline;">Search: &nbsp; </p>\\n        <input value="\', escape=False)\nresponse.write(search_text)\nresponse.write(\'" style="margin-top: 10px;" type="text" name="search_text" />\\n        <br/>\\n        <p style="display:inline;"> Search on:&nbsp; </p>\\n        <select value="\', escape=False)\nresponse.write(filter_category)\nresponse.write(\'" style="margin-top: 10px;" name="filter" >\\n            <option value="id" \', escape=False)\nresponse.write(\'selected\' if filter_category == "id" else \'\')\nresponse.write(\' >ID</option>\\n            <option value="date_time" \', escape=False)\nresponse.write(\'selected\' if filter_category == "date_time" else \'\')\nresponse.write(\' >Date Time</option>\\n            <option value="geo_location" \', escape=False)\nresponse.write(\'selected\' if filter_category == "geo_location" else \'\')\nresponse.write(\' >Geo Location</option>\\n            <option value="shape" \', escape=False)\nresponse.write(\'selected\' if filter_category == "shape" else \'\')\nresponse.write(\' >Shape</option>\\n            <option value="comments" \', escape=False)\nresponse.write(\'selected\' if filter_category == "comments" else \'\')\nresponse.write(\' >Comments</option>\\n            <option value="duration" \', escape=False)\nresponse.write(\'selected\' if filter_category == "duration" else \'\')\nresponse.write(\' >Duration</option>\\n        </select>\\n        <input style="margin-left: 10px;" type="submit" value="Search" />\\n    </form>\\n    <form action=reset_filter()>\\n        <input style="margin-top: -10px; margin-left: 10px; width: 100px;" type="submit" value="Reset Filter" />\\n    </form>\\n</div>\\n<div align = "center" >\\n    Sort by: <a href=\\\'/\', escape=False)\nresponse.write(request.application)\nresponse.write(\'/\', escape=False)\nresponse.write(request.controller)\nresponse.write("/sort_ufo/A\'> ", escape=False)\nresponse.write(I(B(\'ID\')) if sort_selection == \'ID\' else \'ID\')\nresponse.write(" </a>\\n         | <a href=\'/", escape=False)\nresponse.write(request.application)\nresponse.write(\'/\', escape=False)\nresponse.write(request.controller)\nresponse.write("/sort_ufo/B\'> ", escape=False)\nresponse.write(I(B(\'Date Time\')) if sort_selection == \'Date Time\' else \'Date Time\')\nresponse.write(" </a>\\n         | <a href=\'/", escape=False)\nresponse.write(request.application)\nresponse.write(\'/\', escape=False)\nresponse.write(request.controller)\nresponse.write("/sort_ufo/C\'> ", escape=False)\nresponse.write(I(B(\'Geo Location\')) if sort_selection == \'Geo Location\' else \'Geo Location\')\nresponse.write(" </a>\\n         | <a href=\'/", escape=False)\nresponse.write(request.application)\nresponse.write(\'/\', escape=False)\nresponse.write(request.controller)\nresponse.write("/sort_ufo/D\'> ", escape=False)\nresponse.write(I(B(\'Shape\')) if sort_selection == \'Shape\' else \'Shape\')\nresponse.write(" </a>\\n         | <a href=\'/", escape=False)\nresponse.write(request.application)\nresponse.write(\'/\', escape=False)\nresponse.write(request.controller)\nresponse.write("/sort_ufo/D\'> ", escape=False)\nresponse.write(I(B(\'Comments\')) if sort_selection == \'Comments\' else \'Comments\')\nresponse.write(" </a>\\n         | <a href=\'/", escape=False)\nresponse.write(request.application)\nresponse.write(\'/\', escape=False)\nresponse.write(request.controller)\nresponse.write("/sort_ufo/D\'> ", escape=False)\nresponse.write(I(B(\'Duration\')) if sort_selection == \'Duration\' else \'Duration\')\nresponse.write(\' </a>\\n</div>\\n<hr/>\\n<div>\\n    <div align = "center" >\\n        \', escape=False)\ncurrent_page = 0\nif count%page_count == 0:\n    pages = int(count/page_count)\nelse:\n    pages = int(count/page_count) + 1\n    pass\nif pages == 0:\n    response.write(\'No Results\')\nelif index%page_count == 0:\n    current_page = ((index+page_count)/page_count)\n    response.write(\'Page \' + str(current_page) + \' of \' + str(pages))\nelif int(index) == 0:\n    response.write(\'Page 1 of \' + str(pages))\nelse:\n    response.write(\'Page \' + str(pages) + \' of \' + str(pages))\n    pass\nresponse.write(\'\\n    </div>\\n    \', escape=False)\nif (index == 0) and (count > page_count):\n    response.write(\'\\n    <form style="display:inline-block;" action=next_page()>\\n        <input class="btn btn-primary" type="submit" value="Next" />\\n    </form>\\n    \', escape=False)\n    pass\nresponse.write(\'\\n    \', escape=False)\nif (index+page_count > count) and (not index == 0):\n    response.write(\'\\n    <form style="display:inline-block;" action=prev_page()>\\n        <input class="btn btn-primary" type="submit" value="Previous" />\\n    </form>\\n    \', escape=False)\n    pass\nresponse.write(\'\\n    \', escape=False)\nif (not index == 0) and (not index+page_count > count):\n    response.write(\'\\n    <form style="display:inline-block;" action=next_page()>\\n        <input class="btn btn-primary" type="submit" value="Next" />\\n    </form>\\n    <form style="display:inline-block;" action=prev_page()>\\n        <input class="btn btn-primary" type="submit" value="Previous" />\\n    </form>\\n    \', escape=False)\n    pass\nresponse.write(\'\\n</div>\\n\\n\', escape=False)\nif index+page_count > count:\n    end_index = count:\n    else:\n        end_index = index+page_count\n        pass\n    response.write(\'\\n\\n<div align="center">\\n    \', escape=False)\n    for x in range(index, (end_index)):\n        response.write(\'\\n    <div style="display:inline-block; margin: 10px; width: 450px; border: 1px dashed black;" class=\\\'row\\\';>\\n        <p style="margin-top: 2px;">\\n            &nbsp;(\', escape=False)\n        response.write(x+1)\n        response.write(\')\\n        </p>\\n        <p>\\n            &emsp;<b>ID :</b> \', escape=False)\n        response.write(rows[x].id)\n        response.write(\'\\n        </p>\\n        <p>\\n            &emsp;<b>Date Time :</b> \', escape=False)\n        response.write(rows[x].datetime)\n        response.write(\'\\n        </p>\\n        <p>\\n            &emsp;<b>Geo Location :</b> \', escape=False)\n        response.write(rows[x].GeoLocation)\n        response.write(\'\\n        </p>\\n        <p>\\n            &emsp;<b>Shape :</b> \', escape=False)\n        response.write(rows[x].shape)\n        response.write(\'\\n        </p>\\n        <p>\\n            &emsp;<b>Comments :</b> \', escape=False)\n        response.write(rows[x].comments)\n        response.write(\'\\n        </p>\\n        <p>\\n            &emsp;<b>Duration :</b> \', escape=False)\n        response.write(rows[x].duration)\n        response.write(\'\\n        </p>\\n    </div>\\n    \', escape=False)\n        pass\n    response.write(\'\\n</div>\\n\\n<div style="margin-top: 10px" >\\n    \', escape=False)\n    if (index == 0) and (count > page_count):\n        response.write(\'\\n    <form style="display:inline-block;" action=next_page()>\\n        <input class="btn btn-primary" type="submit" value="Next" />\\n    </form>\\n    \', escape=False)\n        pass\n    response.write(\'\\n    \', escape=False)\n    if (index+page_count > count) and (not index == 0):\n        response.write(\'\\n    <form style="display:inline-block;" action=prev_page()>\\n        <input class="btn btn-primary" type="submit" value="Previous" />\\n    </form>\\n    \', escape=False)\n        pass\n    response.write(\'\\n    \', escape=False)\n    if (not index == 0) and (not index+page_count > count):\n        response.write(\'\\n    <form style="display:inline-block;" action=next_page()>\\n        <input class="btn btn-primary" type="submit" value="Next" />\\n    </form>\\n    <form style="display:inline-block;" action=prev_page()>\\n        <input class="btn btn-primary" type="submit" value="Previous" />\\n    </form>\\n    \', escape=False)\n        pass\n    response.write(\'\\n    <a href="%top">Top of Page</a>\\n    <div align = "center" >\\n        \', escape=False)\n    current_page = 0\n    if count%page_count == 0:\n        pages = int(count/page_count)\n    else:\n        pages = int(count/page_count) + 1\n        pass\n    if pages == 0:\n        response.write(\'No Results\')\n    elif index%page_count == 0:\n        current_page = ((index+page_count)/page_count)\n        response.write(\'Page \' + str(current_page) + \' of \' + str(pages))\n    elif int(index) == 0:\n        response.write(\'Page 1 of \' + str(pages))\n    else:\n        response.write(\'Page \' + str(pages) + \' of \' + str(pages))\n        pass\n    response.write(\'\\n    </div>\\n</div>\\n<hr/>\\n\\n<!------------------------------------------------------------------------------------------->\\n\\n<form align="center" action="chooseState()" id="choosestate" method="POST">\\n    <select name="states">\\n        \', escape=False)\n    for rows in row:\n        response.write(\'\\n            \', escape=False)\n        if not rows.state == "dc" and not rows.state == "pr":\n            response.write(\'\\n            <option value=\', escape=False)\n            response.write(rows.state.upper())\n            response.write(\'> \', escape=False)\n            response.write(rows.state.upper())\n            response.write(\'</option>\\n            \', escape=False)\n            pass\n        response.write(\'\\n        \', escape=False)\n        pass\n    response.write(\'\\n    </select>\\n</form>\\n<div align="center" style="margin-top: 20px;">\\n    <button type="submit" form="choosestate" value="Submit">Submit</button>\\n</div>\\n<div>\\n    Controller = \', escape=False)\n    response.write(request.controller)\n    response.write(\' and Session var = \', escape=False)\n    response.write(test)\n    response.write(\'\\n</div>\\n<form align="center" action="incSession()" id="inctest">\\n</form>\\n<div align="center" style="margin-top: 20px;">\\n    <button type="submit" form="inctest" value="Submit">Submit</button>\\n</div>\\n\', escape=False)\n    response.write(\'\\n      \', escape=False)\n    response.write(response.toolbar() if response.show_toolbar else \'\')\n    response.write(\'\\n    </div>\\n\\n    \', escape=False)\n    response.write(\' <!-- this is default footer -->\\n    <footer class="footer container-fluid">\\n      <div class="row">\\n        <div class="col-md-12">\\n          <div class="copyright pull-left">\', escape=False)\n    response.write(T(\'Copyright\'))\n    response.write(\' &#169; \', escape=False)\n    response.write(request.now.year)\n    response.write(\'</div>\\n          <div id="poweredBy" class="pull-right">\\n            \', escape=False)\n    response.write(T(\'Powered by\'))\n    response.write(\'\\n            <a href="http://www.web2py.com/">web2py</a>\\n          </div>\\n        </div>\\n      </div>\\n    </footer>\\n    \', escape=False)\n    response.write(\'\\n    <!-- The javascript =============================== -->\\n    <script src="\', escape=False)\n    response.write(URL(\'static\',\'js/bootstrap.bundle.min.js\'))\n    response.write(\'"></script>\\n    <script src="\', escape=False)\n    response.write(URL(\'static\',\'js/web2py-bootstrap4.js\'))\n    response.write(\'"></script>\\n    \', escape=False)\n    response.write(\'\\n    \', escape=False)\n    if response.google_analytics_id:\n        response.write(\'\\n    <!-- Analytics ==================================== -->\\n    <script src="\', escape=False)\n        response.write(URL(\'static\',\'js/analytics.min.js\'))\n        response.write(\'"></script>\\n    <script type="text/javascript">\\n      analytics.initialize({\\n      \\\'Google Analytics\\\':{trackingId:\\\'\', escape=False)\n        response.write(response.google_analytics_id)\n        response.write("\'}\\n      });\\n    </script>\\n    ", escape=False)\n        pass\n    response.write(\'\\n  </body>\\n</html>\\n\', escape=False)'
p7
sS'snapshot'
p8
(dp9
sS'traceback'
p10
S'None\n'
p11
s.