(lp0
(S'2015'
p1
S'07'
p2
tp3
a(g1
S'08'
p4
tp5
a(g1
S'09'
p6
tp7
a(g1
S'10'
p8
tp9
a(g1
S'11'
p10
tp11
a(g1
S'12'
p12
tp13
a(S'2016'
p14
S'01'
p15
tp16
a(g14
S'02'
p17
tp18
a(g14
S'03'
p19
tp20
a(g14
S'04'
p21
tp22
a(g14
S'05'
p23
tp24
a(g14
S'06'
p25
tp26
a(g14
S'07'
p27
tp28
a(g14
S'08'
p29
tp30
a(g14
S'09'
p31
tp32
a(g14
S'10'
p33
tp34
a(g14
S'11'
p35
tp36
a(g14
S'12'
p37
tp38
a(S'2017'
p39
S'01'
p40
tp41
a(g39
S'02'
p42
tp43
a(g39
S'03'
p44
tp45
a(g39
S'04'
p46
tp47
a(g39
S'05'
p48
tp49
a(g39
S'06'
p50
tp51
a(g39
S'07'
p52
tp53
a(g39
S'08'
p54
tp55
a(g39
S'09'
p56
tp57
a(g39
S'10'
p58
tp59
a(g39
S'11'
p60
tp61
a(g39
S'12'
p62
tp63
a(S'2018'
p64
S'01'
p65
tp66
a(g64
S'02'
p67
tp68
a(g64
S'03'
p69
tp70
a.